target datalayout = "e-m:e-p270:32:32-p271:32:32-p272:64:64-i64:64-i128:128-f80:128-n8:16:32:64-S128"
target triple = "x86_64-pc-linux-gnu"

%struct._zval_struct = type { %union._zend_value, %union.anon, %union.anon.2 }
%union._zend_value = type { i64 }
%union.anon = type { i32 }
%union.anon.2 = type { i32 }
%struct._zend_array = type { %struct._zend_refcounted_h, %union.anon.4, i32, %union.anon.6, i32, i32, i32, i32, i64, ptr }
%struct._zend_refcounted_h = type { i32, %union.anon.3 }
%union.anon.3 = type { i32 }
%union.anon.4 = type { i32 }
%union.anon.6 = type { ptr }
%struct._zend_execute_data = type { ptr, ptr, ptr, ptr, %struct._zval_struct, ptr, ptr, ptr, ptr }
%struct._Bucket = type { %struct._zval_struct, i64, ptr }

; Function Attrs: nounwind uwtable
define hidden void @zif_stream_get_wrappers(ptr noundef %0, ptr noundef %1) #0 {
  %3 = alloca ptr, align 8
  %4 = alloca i32, align 4
  %5 = alloca ptr, align 8
  %6 = alloca ptr, align 8
  %7 = alloca ptr, align 8
  %8 = alloca ptr, align 8
  %9 = alloca ptr, align 8
  %10 = alloca ptr, align 8
  %11 = alloca ptr, align 8
  %12 = alloca ptr, align 8
  %13 = alloca ptr, align 8
  %14 = alloca ptr, align 8
  %15 = alloca ptr, align 8
  %16 = alloca ptr, align 8
  store ptr %0, ptr %7, align 8
  store ptr %1, ptr %8, align 8
  br label %17

17:                                               ; preds = %2
  %18 = load ptr, ptr %7, align 8
  %19 = getelementptr inbounds %struct._zend_execute_data, ptr %18, i32 0, i32 4
  %20 = getelementptr inbounds %struct._zval_struct, ptr %19, i32 0, i32 2
  %21 = load i32, ptr %20, align 4
  %22 = icmp ne i32 %21, 0
  %23 = xor i1 %22, true
  %24 = xor i1 %23, true
  %25 = zext i1 %24 to i32
  %26 = sext i32 %25 to i64
  %27 = icmp ne i64 %26, 0
  br i1 %27, label %28, label %29

28:                                               ; preds = %17
  call void @zend_wrong_parameters_none_error()
  br label %109

29:                                               ; preds = %17
  br label %30

30:                                               ; preds = %29
  %31 = call ptr @_php_stream_get_url_stream_wrappers_hash()
  store ptr %31, ptr %9, align 8
  br label %32

32:                                               ; preds = %30
  %33 = call ptr @_zend_new_array_0()
  store ptr %33, ptr %11, align 8
  %34 = load ptr, ptr %8, align 8
  store ptr %34, ptr %12, align 8
  %35 = load ptr, ptr %11, align 8
  %36 = load ptr, ptr %12, align 8
  %37 = getelementptr inbounds %struct._zval_struct, ptr %36, i32 0, i32 0
  store ptr %35, ptr %37, align 8
  %38 = load ptr, ptr %12, align 8
  %39 = getelementptr inbounds %struct._zval_struct, ptr %38, i32 0, i32 1
  store i32 775, ptr %39, align 8
  br label %40

40:                                               ; preds = %32
  br label %41

41:                                               ; preds = %40
  %42 = load ptr, ptr %9, align 8
  store ptr %42, ptr %13, align 8
  %43 = load ptr, ptr %13, align 8
  %44 = getelementptr inbounds %struct._zend_array, ptr %43, i32 0, i32 3
  %45 = load ptr, ptr %44, align 8
  %46 = getelementptr inbounds %struct._Bucket, ptr %45, i64 0
  store ptr %46, ptr %14, align 8
  %47 = load ptr, ptr %13, align 8
  %48 = getelementptr inbounds %struct._zend_array, ptr %47, i32 0, i32 3
  %49 = load ptr, ptr %48, align 8
  %50 = load ptr, ptr %13, align 8
  %51 = getelementptr inbounds %struct._zend_array, ptr %50, i32 0, i32 4
  %52 = load i32, ptr %51, align 8
  %53 = zext i32 %52 to i64
  %54 = getelementptr inbounds %struct._Bucket, ptr %49, i64 %53
  store ptr %54, ptr %15, align 8
  %55 = load ptr, ptr %13, align 8
  %56 = getelementptr inbounds %struct._zend_array, ptr %55, i32 0, i32 1
  %57 = load i32, ptr %56, align 8
  %58 = and i32 %57, 4
  %59 = icmp ne i32 %58, 0
  %60 = xor i1 %59, true
  call void @llvm.assume(i1 %60)
  br label %61

61:                                               ; preds = %105, %41
  %62 = load ptr, ptr %14, align 8
  %63 = load ptr, ptr %15, align 8
  %64 = icmp ne ptr %62, %63
  br i1 %64, label %65, label %108

65:                                               ; preds = %61
  %66 = load ptr, ptr %14, align 8
  %67 = getelementptr inbounds %struct._Bucket, ptr %66, i32 0, i32 0
  store ptr %67, ptr %16, align 8
  %68 = load ptr, ptr %16, align 8
  store ptr %68, ptr %6, align 8
  %69 = load ptr, ptr %6, align 8
  %70 = getelementptr inbounds %struct._zval_struct, ptr %69, i32 0, i32 1
  %71 = load i8, ptr %70, align 8
  %72 = zext i8 %71 to i32
  %73 = icmp eq i32 %72, 0
  %74 = xor i1 %73, true
  %75 = xor i1 %74, true
  %76 = zext i1 %75 to i32
  %77 = sext i32 %76 to i64
  %78 = icmp ne i64 %77, 0
  br i1 %78, label %79, label %80

79:                                               ; preds = %65
  br label %105

80:                                               ; preds = %65
  %81 = load ptr, ptr %14, align 8
  %82 = getelementptr inbounds %struct._Bucket, ptr %81, i32 0, i32 2
  %83 = load ptr, ptr %82, align 8
  store ptr %83, ptr %10, align 8
  %84 = load ptr, ptr %10, align 8
  %85 = icmp ne ptr %84, null
  br i1 %85, label %86, label %104

86:                                               ; preds = %80
  %87 = load ptr, ptr %8, align 8
  %88 = load ptr, ptr %10, align 8
  store ptr %88, ptr %5, align 8
  %89 = load ptr, ptr %5, align 8
  %90 = getelementptr inbounds %struct._zend_refcounted_h, ptr %89, i32 0, i32 1
  %91 = load i32, ptr %90, align 4
  store i32 %91, ptr %4, align 4
  %92 = load i32, ptr %4, align 4
  %93 = and i32 %92, 1008
  %94 = and i32 %93, 64
  %95 = icmp ne i32 %94, 0
  br i1 %95, label %101, label %96

96:                                               ; preds = %86
  %97 = load ptr, ptr %5, align 8
  store ptr %97, ptr %3, align 8
  %98 = load ptr, ptr %3, align 8
  %99 = load i32, ptr %98, align 4
  %100 = add i32 %99, 1
  store i32 %100, ptr %98, align 4
  br label %101

101:                                              ; preds = %96, %86
  %102 = load ptr, ptr %5, align 8
  %103 = call i32 @add_next_index_str(ptr noundef %87, ptr noundef %102)
  br label %104

104:                                              ; preds = %101, %80
  br label %105

105:                                              ; preds = %104, %79
  %106 = load ptr, ptr %14, align 8
  %107 = getelementptr inbounds %struct._Bucket, ptr %106, i32 1
  store ptr %107, ptr %14, align 8
  br label %61

108:                                              ; preds = %61
  br label %109

109:                                              ; preds = %108, %28
  ret void
}