; Function Attrs: nounwind uwtable
define hidden void @zif_stream_get_wrappers(ptr nocapture noundef readonly %0, ptr noundef %1) local_unnamed_addr #0 {
  %3 = getelementptr inbounds i8, ptr %0, i64 44
  %4 = load i32, ptr %3, align 4
  %.not = icmp eq i32 %4, 0
  br i1 %.not, label %6, label %5

5:                                                ; preds = %2
  tail call void @zend_wrong_parameters_none_error() #10
  br label %.loopexit

6:                                                ; preds = %2
  %7 = tail call ptr @_php_stream_get_url_stream_wrappers_hash() #10
  %8 = tail call ptr @_zend_new_array_0() #10
  store ptr %8, ptr %1, align 8
  %9 = getelementptr inbounds i8, ptr %1, i64 8
  store i32 775, ptr %9, align 8
  %10 = getelementptr inbounds i8, ptr %7, i64 16
  %11 = load ptr, ptr %10, align 8
  %12 = getelementptr inbounds i8, ptr %7, i64 24
  %13 = load i32, ptr %12, align 8
  %14 = zext i32 %13 to i64
  %15 = getelementptr inbounds %struct._Bucket, ptr %11, i64 %14
  %16 = getelementptr inbounds i8, ptr %7, i64 8
  %17 = load i32, ptr %16, align 8
  %18 = and i32 %17, 4
  %.not25 = icmp eq i32 %18, 0
  tail call void @llvm.assume(i1 %.not25)
  %.not2629 = icmp eq i32 %13, 0
  br i1 %.not2629, label %.loopexit, label %.lr.ph

.lr.ph:                                           ; preds = %6, %34
  %.030 = phi ptr [ %35, %34 ], [ %11, %6 ]
  %19 = getelementptr inbounds i8, ptr %.030, i64 8
  %20 = load i8, ptr %19, align 8
  %21 = icmp eq i8 %20, 0
  br i1 %21, label %34, label %22

22:                                               ; preds = %.lr.ph
  %23 = getelementptr inbounds i8, ptr %.030, i64 24
  %24 = load ptr, ptr %23, align 8
  %.not27 = icmp eq ptr %24, null
  br i1 %.not27, label %34, label %25

25:                                               ; preds = %22
  %26 = getelementptr inbounds i8, ptr %24, i64 4
  %27 = load i32, ptr %26, align 4
  %28 = and i32 %27, 64
  %.not28 = icmp eq i32 %28, 0
  br i1 %.not28, label %29, label %32

29:                                               ; preds = %25
  %30 = load i32, ptr %24, align 4
  %31 = add i32 %30, 1
  store i32 %31, ptr %24, align 4
  br label %32

32:                                               ; preds = %29, %25
  %33 = tail call i32 @add_next_index_str(ptr noundef nonnull %1, ptr noundef nonnull %24) #10
  br label %34

34:                                               ; preds = %22, %32, %.lr.ph
  %35 = getelementptr inbounds i8, ptr %.030, i64 32
  %.not26 = icmp eq ptr %35, %15
  br i1 %.not26, label %.loopexit, label %.lr.ph

.loopexit:                                        ; preds = %34, %6, %5
  ret void
}